target datalayout = "e-m:e-p270:32:32-p271:32:32-p272:64:64-i64:64-i128:128-f80:128-n8:16:32:64-S128"
target triple = "x86_64-pc-linux-gnu"

%struct.z_stream_s = type { ptr, i32, i64, ptr, i32, i64, ptr, ptr, ptr, ptr, ptr, i32, i64, i64 }

@.str = private unnamed_addr constant [7 x i8] c"1.2.11\00", align 1

; Function Attrs: nounwind uwtable
define internal zeroext i1 @doit(ptr noundef %0, i64 noundef %1, ptr noundef %2, i64 noundef %3) #0 {
  %5 = alloca i1, align 1
  %6 = alloca ptr, align 8
  %7 = alloca i64, align 8
  %8 = alloca ptr, align 8
  %9 = alloca i64, align 8
  %10 = alloca ptr, align 8
  %11 = alloca %struct.z_stream_s, align 8
  %12 = alloca i32, align 4
  %13 = alloca i32, align 4
  store ptr %0, ptr %6, align 8, !tbaa !10
  store i64 %1, ptr %7, align 8, !tbaa !8
  store ptr %2, ptr %8, align 8, !tbaa !3
  store i64 %3, ptr %9, align 8, !tbaa !8
  call void @llvm.lifetime.start.p0(i64 8, ptr %10) #8
  call void @llvm.lifetime.start.p0(i64 112, ptr %11) #8
  call void @llvm.lifetime.start.p0(i64 4, ptr %12) #8
  %14 = load ptr, ptr %6, align 8, !tbaa !10
  store ptr null, ptr %14, align 8, !tbaa !3
  %15 = load i64, ptr %7, align 8, !tbaa !8
  %16 = call noalias ptr @malloc(i64 noundef %15) #9
  store ptr %16, ptr %10, align 8, !tbaa !3
  %17 = load ptr, ptr %10, align 8, !tbaa !3
  %18 = icmp eq ptr null, %17
  br i1 %18, label %19, label %20

19:                                               ; preds = %4
  store i1 false, ptr %5, align 1
  store i32 1, ptr %13, align 4
  br label %47

20:                                               ; preds = %4
  %21 = load ptr, ptr %10, align 8, !tbaa !3
  %22 = load i64, ptr %7, align 8, !tbaa !8
  call void @llvm.memset.p0.i64(ptr align 1 %21, i8 0, i64 %22, i1 false)
  call void @llvm.memset.p0.i64(ptr align 8 %11, i8 0, i64 112, i1 false)
  %23 = call i32 @inflateInit_(ptr noundef %11, ptr noundef @.str, i32 noundef 112)
  %24 = icmp ne i32 0, %23
  br i1 %24, label %25, label %27

25:                                               ; preds = %20
  %26 = load ptr, ptr %10, align 8, !tbaa !3
  call void @free(ptr noundef %26) #8
  store i1 false, ptr %5, align 1
  store i32 1, ptr %13, align 4
  br label %47

27:                                               ; preds = %20
  %28 = load i64, ptr %9, align 8, !tbaa !8
  %29 = trunc i64 %28 to i32
  %30 = getelementptr inbounds nuw %struct.z_stream_s, ptr %11, i32 0, i32 1
  store i32 %29, ptr %30, align 8, !tbaa !22
  %31 = load ptr, ptr %8, align 8, !tbaa !3
  %32 = getelementptr inbounds nuw %struct.z_stream_s, ptr %11, i32 0, i32 0
  store ptr %31, ptr %32, align 8, !tbaa !19
  %33 = load i64, ptr %7, align 8, !tbaa !8
  %34 = trunc i64 %33 to i32
  %35 = getelementptr inbounds nuw %struct.z_stream_s, ptr %11, i32 0, i32 4
  store i32 %34, ptr %35, align 8, !tbaa !23
  %36 = load ptr, ptr %10, align 8, !tbaa !3
  %37 = getelementptr inbounds nuw %struct.z_stream_s, ptr %11, i32 0, i32 3
  store ptr %36, ptr %37, align 8, !tbaa !24
  %38 = call i32 @inflate(ptr noundef %11, i32 noundef 4)
  store i32 %38, ptr %12, align 4, !tbaa !17
  %39 = call i32 @inflateEnd(ptr noundef %11)
  %40 = load i32, ptr %12, align 4, !tbaa !17
  %41 = icmp eq i32 1, %40
  br i1 %41, label %42, label %45

42:                                               ; preds = %27
  %43 = load ptr, ptr %10, align 8, !tbaa !3
  %44 = load ptr, ptr %6, align 8, !tbaa !10
  store ptr %43, ptr %44, align 8, !tbaa !3
  store i1 true, ptr %5, align 1
  store i32 1, ptr %13, align 4
  br label %47

45:                                               ; preds = %27
  %46 = load ptr, ptr %10, align 8, !tbaa !3
  call void @free(ptr noundef %46) #8
  store i1 false, ptr %5, align 1
  store i32 1, ptr %13, align 4
  br label %47

47:                                               ; preds = %45, %42, %25, %19
  call void @llvm.lifetime.end.p0(i64 4, ptr %12) #8
  call void @llvm.lifetime.end.p0(i64 112, ptr %11) #8
  call void @llvm.lifetime.end.p0(i64 8, ptr %10) #8
  %48 = load i1, ptr %5, align 1
  ret i1 %48
}