; Function Attrs: nounwind uwtable
define internal fastcc noundef zeroext i1 @doit(ptr noundef writeonly captures(none) initializes((0, 8)) %0, i64 noundef range(i64 0, 4294967296) %1, ptr noundef %2, i64 noundef %3) unnamed_addr #0 {
  %5 = alloca %struct.z_stream_s, align 8
  call void @llvm.lifetime.start.p0(i64 112, ptr nonnull %5) #9
  store ptr null, ptr %0, align 8, !tbaa !3
  %calloc = tail call ptr @calloc(i64 1, i64 %1)
  %6 = icmp eq ptr %calloc, null
  br i1 %6, label %21, label %7

7:                                                ; preds = %4
  call void @llvm.memset.p0.i64(ptr noundef nonnull align 8 dereferenceable(112) %5, i8 0, i64 112, i1 false)
  %8 = call i32 @inflateInit_(ptr noundef nonnull %5, ptr noundef nonnull @.str, i32 noundef 112) #9
  %.not = icmp eq i32 %8, 0
  br i1 %.not, label %10, label %9

9:                                                ; preds = %7
  call void @free(ptr noundef nonnull %calloc) #9
  br label %21

10:                                               ; preds = %7
  %11 = trunc i64 %3 to i32
  %12 = getelementptr inbounds nuw i8, ptr %5, i64 8
  store i32 %11, ptr %12, align 8, !tbaa !17
  store ptr %2, ptr %5, align 8, !tbaa !13
  %13 = trunc nuw i64 %1 to i32
  %14 = getelementptr inbounds nuw i8, ptr %5, i64 32
  store i32 %13, ptr %14, align 8, !tbaa !18
  %15 = getelementptr inbounds nuw i8, ptr %5, i64 24
  store ptr %calloc, ptr %15, align 8, !tbaa !19
  %16 = call i32 @inflate(ptr noundef nonnull %5, i32 noundef 4) #9
  %17 = call i32 @inflateEnd(ptr noundef nonnull %5) #9
  %18 = icmp eq i32 %16, 1
  br i1 %18, label %19, label %20

19:                                               ; preds = %10
  store ptr %calloc, ptr %0, align 8, !tbaa !3
  br label %21

20:                                               ; preds = %10
  call void @free(ptr noundef nonnull %calloc) #9
  br label %21

21:                                               ; preds = %4, %20, %19, %9
  %.0 = phi i1 [ false, %9 ], [ true, %19 ], [ false, %20 ], [ false, %4 ]
  call void @llvm.lifetime.end.p0(i64 112, ptr nonnull %5) #9
  ret i1 %.0
}